target datalayout = "e-m:e-p270:32:32-p271:32:32-p272:64:64-i64:64-i128:128-f80:128-n8:16:32:64-S128"
target triple = "x86_64-pc-linux-gnu"

%struct.dt_masks_dynbuf_t = type { ptr, [128 x i8], i64, i64 }

; Function Attrs: inlinehint nounwind uwtable
define internal void @dt_masks_dynbuf_add_2(ptr noundef %0, float noundef %1, float noundef %2) #4 {
  %4 = alloca ptr, align 8
  %5 = alloca float, align 4
  %6 = alloca float, align 4
  store ptr %0, ptr %4, align 8, !tbaa !198
  store float %1, ptr %5, align 4, !tbaa !29
  store float %2, ptr %6, align 4, !tbaa !29
  %7 = load ptr, ptr %4, align 8, !tbaa !198
  %8 = getelementptr inbounds nuw %struct.dt_masks_dynbuf_t, ptr %7, i32 0, i32 2
  %9 = load i64, ptr %8, align 8, !tbaa !201
  %10 = add i64 %9, 2
  %11 = load ptr, ptr %4, align 8, !tbaa !198
  %12 = getelementptr inbounds nuw %struct.dt_masks_dynbuf_t, ptr %11, i32 0, i32 3
  %13 = load i64, ptr %12, align 8, !tbaa !211
  %14 = icmp uge i64 %10, %13
  %15 = zext i1 %14 to i32
  %16 = sext i32 %15 to i64
  %17 = call i64 @llvm.expect.i64(i64 %16, i64 0)
  %18 = icmp ne i64 %17, 0
  br i1 %18, label %19, label %35

19:                                               ; preds = %3
  %20 = load ptr, ptr %4, align 8, !tbaa !198
  %21 = getelementptr inbounds nuw %struct.dt_masks_dynbuf_t, ptr %20, i32 0, i32 3
  %22 = load i64, ptr %21, align 8, !tbaa !211
  %23 = icmp eq i64 %22, 0
  br i1 %23, label %33, label %24

24:                                               ; preds = %19
  %25 = load ptr, ptr %4, align 8, !tbaa !198
  %26 = load ptr, ptr %4, align 8, !tbaa !198
  %27 = getelementptr inbounds nuw %struct.dt_masks_dynbuf_t, ptr %26, i32 0, i32 3
  %28 = load i64, ptr %27, align 8, !tbaa !211
  %29 = add i64 %28, 1
  %30 = mul i64 2, %29
  %31 = call i32 @_dt_masks_dynbuf_growto(ptr noundef %25, i64 noundef %30)
  %32 = icmp ne i32 %31, 0
  br i1 %32, label %34, label %33

33:                                               ; preds = %24, %19
  br label %54

34:                                               ; preds = %24
  br label %35

35:                                               ; preds = %34, %3
  %36 = load float, ptr %5, align 4, !tbaa !29
  %37 = load ptr, ptr %4, align 8, !tbaa !198
  %38 = getelementptr inbounds nuw %struct.dt_masks_dynbuf_t, ptr %37, i32 0, i32 0
  %39 = load ptr, ptr %38, align 8, !tbaa !199
  %40 = load ptr, ptr %4, align 8, !tbaa !198
  %41 = getelementptr inbounds nuw %struct.dt_masks_dynbuf_t, ptr %40, i32 0, i32 2
  %42 = load i64, ptr %41, align 8, !tbaa !201
  %43 = add i64 %42, 1
  store i64 %43, ptr %41, align 8, !tbaa !201
  %44 = getelementptr inbounds nuw float, ptr %39, i64 %42
  store float %36, ptr %44, align 4, !tbaa !29
  %45 = load float, ptr %6, align 4, !tbaa !29
  %46 = load ptr, ptr %4, align 8, !tbaa !198
  %47 = getelementptr inbounds nuw %struct.dt_masks_dynbuf_t, ptr %46, i32 0, i32 0
  %48 = load ptr, ptr %47, align 8, !tbaa !199
  %49 = load ptr, ptr %4, align 8, !tbaa !198
  %50 = getelementptr inbounds nuw %struct.dt_masks_dynbuf_t, ptr %49, i32 0, i32 2
  %51 = load i64, ptr %50, align 8, !tbaa !201
  %52 = add i64 %51, 1
  store i64 %52, ptr %50, align 8, !tbaa !201
  %53 = getelementptr inbounds nuw float, ptr %48, i64 %51
  store float %45, ptr %53, align 4, !tbaa !29
  br label %54

54:                                               ; preds = %35, %33
  ret void
}