; Function Attrs: inlinehint nounwind uwtable
define internal fastcc void @dt_masks_dynbuf_add_2(ptr noundef %0, float noundef %1, float noundef %2) unnamed_addr #10 {
  %4 = getelementptr inbounds nuw i8, ptr %0, i64 136
  %5 = load i64, ptr %4, align 8, !tbaa !92
  %6 = add i64 %5, 2
  %7 = getelementptr inbounds nuw i8, ptr %0, i64 144
  %8 = load i64, ptr %7, align 8, !tbaa !151
  %.not = icmp ult i64 %6, %8
  br i1 %.not, label %15, label %9, !prof !152

9:                                                ; preds = %3
  %10 = icmp eq i64 %8, 0
  br i1 %10, label %21, label %11

11:                                               ; preds = %9
  %12 = shl i64 %8, 1
  %13 = add i64 %12, 2
  %14 = tail call fastcc i32 @_dt_masks_dynbuf_growto(ptr noundef nonnull %0, i64 noundef %13)
  %.not11 = icmp eq i32 %14, 0
  br i1 %.not11, label %21, label %._crit_edge

._crit_edge:                                      ; preds = %11
  %.pre = load i64, ptr %4, align 8, !tbaa !92
  %.pre12 = add i64 %.pre, 2
  br label %15

15:                                               ; preds = %._crit_edge, %3
  %.pre-phi = phi i64 [ %.pre12, %._crit_edge ], [ %6, %3 ]
  %16 = phi i64 [ %.pre, %._crit_edge ], [ %5, %3 ]
  %17 = load ptr, ptr %0, align 8, !tbaa !89
  %18 = getelementptr inbounds nuw float, ptr %17, i64 %16
  store float %1, ptr %18, align 4, !tbaa !93
  store i64 %.pre-phi, ptr %4, align 8, !tbaa !92
  %19 = getelementptr float, ptr %17, i64 %16
  %20 = getelementptr i8, ptr %19, i64 4
  store float %2, ptr %20, align 4, !tbaa !93
  br label %21

21:                                               ; preds = %9, %11, %15
  ret void
}